; Function Attrs: mustprogress uwtable
define void @_ZN6icu_7713DecimalFormat16setCurrencyUsageE14UCurrencyUsageP10UErrorCode(ptr noundef nonnull align 8 dereferenceable(72) %0, i32 noundef %1, ptr noundef %2) local_unnamed_addr #1 align 2 {
  %4 = load i32, ptr %2, align 4, !tbaa !13
  %5 = icmp slt i32 %4, 1
  br i1 %5, label %6, label %21

6:                                                ; preds = %3
  %7 = getelementptr inbounds nuw i8, ptr %0, i64 64
  %8 = load ptr, ptr %7, align 8, !tbaa !25
  %9 = icmp eq ptr %8, null
  br i1 %9, label %10, label %11

10:                                               ; preds = %6
  store i32 7, ptr %2, align 4, !tbaa !13
  br label %21

11:                                               ; preds = %6
  %12 = getelementptr inbounds nuw i8, ptr %8, i64 64
  %13 = load i8, ptr %12, align 4, !tbaa !118, !range !45, !noundef !49
  %14 = trunc nuw i8 %13 to i1
  br i1 %14, label %19, label %15

15:                                               ; preds = %11
  %16 = getelementptr inbounds nuw i8, ptr %8, i64 68
  %17 = load i32, ptr %16, align 4, !tbaa !119
  %18 = icmp eq i32 %1, %17
  br i1 %18, label %21, label %19

19:                                               ; preds = %15, %11
  %20 = getelementptr inbounds nuw i8, ptr %8, i64 68
  store i32 %1, ptr %20, align 4, !tbaa !119
  store i8 0, ptr %12, align 4, !tbaa !118
  tail call void @_ZN6icu_7713DecimalFormat5touchER10UErrorCode(ptr noundef nonnull align 8 dereferenceable(72) %0, ptr noundef nonnull align 4 dereferenceable(4) %2)
  br label %21

21:                                               ; preds = %15, %3, %19, %10
  ret void
}